target datalayout = "e-m:e-p270:32:32-p271:32:32-p272:64:64-i64:64-i128:128-f80:128-n8:16:32:64-S128"
target triple = "x86_64-pc-linux-gnu"

%struct.AVCodecContext = type { ptr, i32, i32, ptr, i32, i32, ptr, ptr, ptr, i64, i32, i32, ptr, i32, %struct.AVRational, %struct.AVRational, %struct.AVRational, i32, i32, i32, i32, i32, %struct.AVRational, i32, i32, i32, i32, i32, i32, i32, i32, i32, i32, i32, ptr, ptr, i32, float, float, float, float, float, float, float, float, float, i32, i32, i32, i32, i32, i32, i32, i32, i32, i32, i32, i32, ptr, ptr, ptr, i32, i32, i32, i32, i32, i32, i32, i32, i32, i32, %struct.AVChannelLayout, i32, i32, i32, i32, i32, i32, i32, i32, ptr, i32, i32, i32, float, float, i32, i32, i32, i32, i32, ptr, i64, i64, float, float, i32, i32, ptr, ptr, i32, i32, i32, i32, i32, ptr, ptr, ptr, ptr, i32, i32, [8 x i64], i32, i32, i32, i32, i32, i32, i32, ptr, ptr, i32, i32, i32, i32, i32, i32, i32, i32, i32, i32, ptr, ptr, i32, i32, ptr, ptr, ptr, ptr, i32, i32, i64, i32, i32, i64, ptr, i64, ptr, i32, ptr, i32 }
%struct.AVRational = type { i32, i32 }
%struct.AVChannelLayout = type { i32, i32, %union.anon, ptr }
%union.anon = type { i64 }
%struct.FDCTDSPContext = type { ptr, ptr }

; Function Attrs: cold nounwind optsize uwtable
define hidden void @ff_fdctdsp_init(ptr noundef %0, ptr noundef %1) #0 {
  %3 = alloca ptr, align 8
  %4 = alloca ptr, align 8
  %5 = alloca i32, align 4
  store ptr %0, ptr %3, align 8, !tbaa !4
  store ptr %1, ptr %4, align 8, !tbaa !9
  call void @llvm.lifetime.start.p0(i64 4, ptr %5) #3
  %6 = load ptr, ptr %4, align 8, !tbaa !9
  %7 = getelementptr inbounds nuw %struct.AVCodecContext, ptr %6, i32 0, i32 115
  %8 = load i32, ptr %7, align 4, !tbaa !11
  %9 = icmp sgt i32 %8, 8
  %10 = zext i1 %9 to i32
  store i32 %10, ptr %5, align 4, !tbaa !31
  %11 = load ptr, ptr %4, align 8, !tbaa !9
  %12 = getelementptr inbounds nuw %struct.AVCodecContext, ptr %11, i32 0, i32 115
  %13 = load i32, ptr %12, align 4, !tbaa !11
  %14 = icmp eq i32 %13, 10
  br i1 %14, label %20, label %15

15:                                               ; preds = %2
  %16 = load ptr, ptr %4, align 8, !tbaa !9
  %17 = getelementptr inbounds nuw %struct.AVCodecContext, ptr %16, i32 0, i32 115
  %18 = load i32, ptr %17, align 4, !tbaa !11
  %19 = icmp eq i32 %18, 9
  br i1 %19, label %20, label %25

20:                                               ; preds = %15, %2
  %21 = load ptr, ptr %3, align 8, !tbaa !4
  %22 = getelementptr inbounds nuw %struct.FDCTDSPContext, ptr %21, i32 0, i32 0
  store ptr @ff_jpeg_fdct_islow_10, ptr %22, align 8, !tbaa !32
  %23 = load ptr, ptr %3, align 8, !tbaa !4
  %24 = getelementptr inbounds nuw %struct.FDCTDSPContext, ptr %23, i32 0, i32 1
  store ptr @ff_fdct248_islow_10, ptr %24, align 8, !tbaa !34
  br label %52

25:                                               ; preds = %15
  %26 = load ptr, ptr %4, align 8, !tbaa !9
  %27 = getelementptr inbounds nuw %struct.AVCodecContext, ptr %26, i32 0, i32 112
  %28 = load i32, ptr %27, align 8, !tbaa !35
  %29 = icmp eq i32 %28, 1
  br i1 %29, label %30, label %35

30:                                               ; preds = %25
  %31 = load ptr, ptr %3, align 8, !tbaa !4
  %32 = getelementptr inbounds nuw %struct.FDCTDSPContext, ptr %31, i32 0, i32 0
  store ptr @ff_fdct_ifast, ptr %32, align 8, !tbaa !32
  %33 = load ptr, ptr %3, align 8, !tbaa !4
  %34 = getelementptr inbounds nuw %struct.FDCTDSPContext, ptr %33, i32 0, i32 1
  store ptr @ff_fdct_ifast248, ptr %34, align 8, !tbaa !34
  br label %51

35:                                               ; preds = %25
  %36 = load ptr, ptr %4, align 8, !tbaa !9
  %37 = getelementptr inbounds nuw %struct.AVCodecContext, ptr %36, i32 0, i32 112
  %38 = load i32, ptr %37, align 8, !tbaa !35
  %39 = icmp eq i32 %38, 6
  br i1 %39, label %40, label %45

40:                                               ; preds = %35
  %41 = load ptr, ptr %3, align 8, !tbaa !4
  %42 = getelementptr inbounds nuw %struct.FDCTDSPContext, ptr %41, i32 0, i32 0
  store ptr @ff_faandct, ptr %42, align 8, !tbaa !32
  %43 = load ptr, ptr %3, align 8, !tbaa !4
  %44 = getelementptr inbounds nuw %struct.FDCTDSPContext, ptr %43, i32 0, i32 1
  store ptr @ff_faandct248, ptr %44, align 8, !tbaa !34
  br label %50

45:                                               ; preds = %35
  %46 = load ptr, ptr %3, align 8, !tbaa !4
  %47 = getelementptr inbounds nuw %struct.FDCTDSPContext, ptr %46, i32 0, i32 0
  store ptr @ff_jpeg_fdct_islow_8, ptr %47, align 8, !tbaa !32
  %48 = load ptr, ptr %3, align 8, !tbaa !4
  %49 = getelementptr inbounds nuw %struct.FDCTDSPContext, ptr %48, i32 0, i32 1
  store ptr @ff_fdct248_islow_8, ptr %49, align 8, !tbaa !34
  br label %50

50:                                               ; preds = %45, %40
  br label %51

51:                                               ; preds = %50, %30
  br label %52

52:                                               ; preds = %51, %20
  call void @llvm.lifetime.end.p0(i64 4, ptr %5) #3
  ret void
}

; Function Attrs: nocallback nofree nosync nounwind willreturn memory(argmem: readwrite)
declare void @llvm.lifetime.start.p0(i64 immarg, ptr captures(none)) #1

declare hidden void @ff_jpeg_fdct_islow_10(ptr noundef) #2

declare hidden void @ff_fdct248_islow_10(ptr noundef) #2

declare hidden void @ff_fdct_ifast(ptr noundef) #2

declare hidden void @ff_fdct_ifast248(ptr noundef) #2

declare void @ff_faandct(ptr noundef) #2

declare void @ff_faandct248(ptr noundef) #2

declare hidden void @ff_jpeg_fdct_islow_8(ptr noundef) #2

declare hidden void @ff_fdct248_islow_8(ptr noundef) #2

; Function Attrs: nocallback nofree nosync nounwind willreturn memory(argmem: readwrite)
declare void @llvm.lifetime.end.p0(i64 immarg, ptr captures(none)) #1


!llvm.module.flags = !{!0, !1, !2, !3}

!0 = !{i32 1, !"wchar_size", i32 4}
!1 = !{i32 8, !"PIC Level", i32 2}
!2 = !{i32 7, !"uwtable", i32 2}
!3 = !{i32 1, !"override-stack-alignment", i32 16}
!4 = !{!5, !5, i64 0}
!5 = !{!"p1 _ZTS14FDCTDSPContext", !6, i64 0}
!6 = !{!"any pointer", !7, i64 0}
!7 = !{!"omnipotent char", !8, i64 0}
!8 = !{!"Simple C/C++ TBAA"}
!9 = !{!10, !10, i64 0}
!10 = !{!"p1 _ZTS14AVCodecContext", !6, i64 0}
!11 = !{!12, !14, i64 652}
!12 = !{!"AVCodecContext", !13, i64 0, !14, i64 8, !14, i64 12, !15, i64 16, !14, i64 24, !14, i64 28, !6, i64 32, !16, i64 40, !6, i64 48, !17, i64 56, !14, i64 64, !14, i64 68, !18, i64 72, !14, i64 80, !19, i64 84, !19, i64 92, !19, i64 100, !14, i64 108, !14, i64 112, !14, i64 116, !14, i64 120, !14, i64 124, !19, i64 128, !14, i64 136, !14, i64 140, !14, i64 144, !14, i64 148, !14, i64 152, !14, i64 156, !14, i64 160, !14, i64 164, !14, i64 168, !14, i64 172, !14, i64 176, !6, i64 184, !6, i64 192, !14, i64 200, !20, i64 204, !20, i64 208, !20, i64 212, !20, i64 216, !20, i64 220, !20, i64 224, !20, i64 228, !20, i64 232, !20, i64 236, !14, i64 240, !14, i64 244, !14, i64 248, !14, i64 252, !14, i64 256, !14, i64 260, !14, i64 264, !14, i64 268, !14, i64 272, !14, i64 276, !14, i64 280, !14, i64 284, !21, i64 288, !21, i64 296, !21, i64 304, !14, i64 312, !14, i64 316, !14, i64 320, !14, i64 324, !14, i64 328, !14, i64 332, !14, i64 336, !14, i64 340, !14, i64 344, !14, i64 348, !22, i64 352, !14, i64 376, !14, i64 380, !14, i64 384, !14, i64 388, !14, i64 392, !14, i64 396, !14, i64 400, !14, i64 404, !6, i64 408, !14, i64 416, !14, i64 420, !14, i64 424, !20, i64 428, !20, i64 432, !14, i64 436, !14, i64 440, !14, i64 444, !14, i64 448, !14, i64 452, !23, i64 456, !17, i64 464, !17, i64 472, !20, i64 480, !20, i64 484, !14, i64 488, !14, i64 492, !18, i64 496, !18, i64 504, !14, i64 512, !14, i64 516, !14, i64 520, !14, i64 524, !14, i64 528, !24, i64 536, !6, i64 544, !25, i64 552, !25, i64 560, !14, i64 568, !14, i64 572, !7, i64 576, !14, i64 640, !14, i64 644, !14, i64 648, !14, i64 652, !14, i64 656, !14, i64 660, !14, i64 664, !6, i64 672, !6, i64 680, !14, i64 688, !14, i64 692, !14, i64 696, !14, i64 700, !14, i64 704, !14, i64 708, !14, i64 712, !14, i64 716, !14, i64 720, !14, i64 724, !26, i64 728, !18, i64 736, !14, i64 744, !14, i64 748, !18, i64 752, !18, i64 760, !18, i64 768, !27, i64 776, !14, i64 784, !14, i64 788, !17, i64 792, !14, i64 800, !14, i64 804, !17, i64 808, !6, i64 816, !17, i64 824, !28, i64 832, !14, i64 840, !29, i64 848, !14, i64 856}
!13 = !{!"p1 _ZTS7AVClass", !6, i64 0}
!14 = !{!"int", !7, i64 0}
!15 = !{!"p1 _ZTS7AVCodec", !6, i64 0}
!16 = !{!"p1 _ZTS15AVCodecInternal", !6, i64 0}
!17 = !{!"long", !7, i64 0}
!18 = !{!"p1 omnipotent char", !6, i64 0}
!19 = !{!"AVRational", !14, i64 0, !14, i64 4}
!20 = !{!"float", !7, i64 0}
!21 = !{!"p1 short", !6, i64 0}
!22 = !{!"AVChannelLayout", !14, i64 0, !14, i64 4, !7, i64 8, !6, i64 16}
!23 = !{!"p1 _ZTS10RcOverride", !6, i64 0}
!24 = !{!"p1 _ZTS9AVHWAccel", !6, i64 0}
!25 = !{!"p1 _ZTS11AVBufferRef", !6, i64 0}
!26 = !{!"p1 _ZTS17AVCodecDescriptor", !6, i64 0}
!27 = !{!"p1 _ZTS16AVPacketSideData", !6, i64 0}
!28 = !{!"p1 int", !6, i64 0}
!29 = !{!"p2 _ZTS15AVFrameSideData", !30, i64 0}
!30 = !{!"any p2 pointer", !6, i64 0}
!31 = !{!14, !14, i64 0}
!32 = !{!33, !6, i64 0}
!33 = !{!"FDCTDSPContext", !6, i64 0, !6, i64 8}
!34 = !{!33, !6, i64 8}
!35 = !{!12, !14, i64 640}
