; ModuleID = 'bench/ffmpeg/original/fdctdsp.ll'
source_filename = "bench/ffmpeg/original/fdctdsp.ll"
target datalayout = "e-m:e-p270:32:32-p271:32:32-p272:64:64-i64:64-i128:128-f80:128-n8:16:32:64-S128"
target triple = "x86_64-pc-linux-gnu"

; Function Attrs: cold mustprogress nofree norecurse nosync nounwind optsize willreturn memory(argmem: readwrite) uwtable
define hidden void @ff_fdctdsp_init(ptr noundef writeonly captures(none) initializes((0, 16)) %0, ptr noundef readonly captures(none) %1) local_unnamed_addr #0 {
  %3 = getelementptr inbounds nuw i8, ptr %1, i64 652
  %4 = load i32, ptr %3, align 4, !tbaa !4
  %.off = add i32 %4, -9
  %switch = icmp ult i32 %.off, 2
  br i1 %switch, label %5, label %7

5:                                                ; preds = %2
  store ptr @ff_jpeg_fdct_islow_10, ptr %0, align 8, !tbaa !27
  %6 = getelementptr inbounds nuw i8, ptr %0, i64 8
  store ptr @ff_fdct248_islow_10, ptr %6, align 8, !tbaa !29
  br label %14

7:                                                ; preds = %2
  %8 = getelementptr inbounds nuw i8, ptr %1, i64 640
  %9 = load i32, ptr %8, align 8, !tbaa !30
  %10 = getelementptr inbounds nuw i8, ptr %0, i64 8
  switch i32 %9, label %13 [
    i32 1, label %11
    i32 6, label %12
  ]

11:                                               ; preds = %7
  store ptr @ff_fdct_ifast, ptr %0, align 8, !tbaa !27
  store ptr @ff_fdct_ifast248, ptr %10, align 8, !tbaa !29
  br label %14

12:                                               ; preds = %7
  store ptr @ff_faandct, ptr %0, align 8, !tbaa !27
  store ptr @ff_faandct248, ptr %10, align 8, !tbaa !29
  br label %14

13:                                               ; preds = %7
  store ptr @ff_jpeg_fdct_islow_8, ptr %0, align 8, !tbaa !27
  store ptr @ff_fdct248_islow_8, ptr %10, align 8, !tbaa !29
  br label %14

14:                                               ; preds = %11, %13, %12, %5
  ret void
}

declare hidden void @ff_jpeg_fdct_islow_10(ptr noundef) #1

declare hidden void @ff_fdct248_islow_10(ptr noundef) #1

declare hidden void @ff_fdct_ifast(ptr noundef) #1

declare hidden void @ff_fdct_ifast248(ptr noundef) #1

declare void @ff_faandct(ptr noundef) #1

declare void @ff_faandct248(ptr noundef) #1

declare hidden void @ff_jpeg_fdct_islow_8(ptr noundef) #1

declare hidden void @ff_fdct248_islow_8(ptr noundef) #1


!llvm.module.flags = !{!0, !1, !2, !3}

!0 = !{i32 1, !"wchar_size", i32 4}
!1 = !{i32 8, !"PIC Level", i32 2}
!2 = !{i32 7, !"uwtable", i32 2}
!3 = !{i32 1, !"override-stack-alignment", i32 16}
!4 = !{!5, !10, i64 652}
!5 = !{!"AVCodecContext", !6, i64 0, !10, i64 8, !10, i64 12, !11, i64 16, !10, i64 24, !10, i64 28, !7, i64 32, !12, i64 40, !7, i64 48, !13, i64 56, !10, i64 64, !10, i64 68, !14, i64 72, !10, i64 80, !15, i64 84, !15, i64 92, !15, i64 100, !10, i64 108, !10, i64 112, !10, i64 116, !10, i64 120, !10, i64 124, !15, i64 128, !10, i64 136, !10, i64 140, !10, i64 144, !10, i64 148, !10, i64 152, !10, i64 156, !10, i64 160, !10, i64 164, !10, i64 168, !10, i64 172, !10, i64 176, !7, i64 184, !7, i64 192, !10, i64 200, !16, i64 204, !16, i64 208, !16, i64 212, !16, i64 216, !16, i64 220, !16, i64 224, !16, i64 228, !16, i64 232, !16, i64 236, !10, i64 240, !10, i64 244, !10, i64 248, !10, i64 252, !10, i64 256, !10, i64 260, !10, i64 264, !10, i64 268, !10, i64 272, !10, i64 276, !10, i64 280, !10, i64 284, !17, i64 288, !17, i64 296, !17, i64 304, !10, i64 312, !10, i64 316, !10, i64 320, !10, i64 324, !10, i64 328, !10, i64 332, !10, i64 336, !10, i64 340, !10, i64 344, !10, i64 348, !18, i64 352, !10, i64 376, !10, i64 380, !10, i64 384, !10, i64 388, !10, i64 392, !10, i64 396, !10, i64 400, !10, i64 404, !7, i64 408, !10, i64 416, !10, i64 420, !10, i64 424, !16, i64 428, !16, i64 432, !10, i64 436, !10, i64 440, !10, i64 444, !10, i64 448, !10, i64 452, !19, i64 456, !13, i64 464, !13, i64 472, !16, i64 480, !16, i64 484, !10, i64 488, !10, i64 492, !14, i64 496, !14, i64 504, !10, i64 512, !10, i64 516, !10, i64 520, !10, i64 524, !10, i64 528, !20, i64 536, !7, i64 544, !21, i64 552, !21, i64 560, !10, i64 568, !10, i64 572, !8, i64 576, !10, i64 640, !10, i64 644, !10, i64 648, !10, i64 652, !10, i64 656, !10, i64 660, !10, i64 664, !7, i64 672, !7, i64 680, !10, i64 688, !10, i64 692, !10, i64 696, !10, i64 700, !10, i64 704, !10, i64 708, !10, i64 712, !10, i64 716, !10, i64 720, !10, i64 724, !22, i64 728, !14, i64 736, !10, i64 744, !10, i64 748, !14, i64 752, !14, i64 760, !14, i64 768, !23, i64 776, !10, i64 784, !10, i64 788, !13, i64 792, !10, i64 800, !10, i64 804, !13, i64 808, !7, i64 816, !13, i64 824, !24, i64 832, !10, i64 840, !25, i64 848, !10, i64 856}
!6 = !{!"p1 _ZTS7AVClass", !7, i64 0}
!7 = !{!"any pointer", !8, i64 0}
!8 = !{!"omnipotent char", !9, i64 0}
!9 = !{!"Simple C/C++ TBAA"}
!10 = !{!"int", !8, i64 0}
!11 = !{!"p1 _ZTS7AVCodec", !7, i64 0}
!12 = !{!"p1 _ZTS15AVCodecInternal", !7, i64 0}
!13 = !{!"long", !8, i64 0}
!14 = !{!"p1 omnipotent char", !7, i64 0}
!15 = !{!"AVRational", !10, i64 0, !10, i64 4}
!16 = !{!"float", !8, i64 0}
!17 = !{!"p1 short", !7, i64 0}
!18 = !{!"AVChannelLayout", !10, i64 0, !10, i64 4, !8, i64 8, !7, i64 16}
!19 = !{!"p1 _ZTS10RcOverride", !7, i64 0}
!20 = !{!"p1 _ZTS9AVHWAccel", !7, i64 0}
!21 = !{!"p1 _ZTS11AVBufferRef", !7, i64 0}
!22 = !{!"p1 _ZTS17AVCodecDescriptor", !7, i64 0}
!23 = !{!"p1 _ZTS16AVPacketSideData", !7, i64 0}
!24 = !{!"p1 int", !7, i64 0}
!25 = !{!"p2 _ZTS15AVFrameSideData", !26, i64 0}
!26 = !{!"any p2 pointer", !7, i64 0}
!27 = !{!28, !7, i64 0}
!28 = !{!"FDCTDSPContext", !7, i64 0, !7, i64 8}
!29 = !{!28, !7, i64 8}
!30 = !{!5, !10, i64 640}
